; Function Attrs: mustprogress uwtable
define noundef zeroext i1 @_ZN3gmx16extensionMatchesERKNSt10filesystem7__cxx114pathESt17basic_string_viewIcSt11char_traitsIcEE(ptr noundef nonnull align 8 dereferenceable(40) %0, i64 %1, ptr nocapture readonly %2) local_unnamed_addr #0 personality ptr @__gxx_personality_v0 {
  %4 = alloca %"class.std::allocator", align 1
  %5 = alloca %"class.std::filesystem::__cxx11::path", align 8
  %6 = alloca %"class.std::__cxx11::basic_string", align 8
  %7 = alloca %"class.std::__cxx11::basic_string", align 8
  call void @_ZNKSt10filesystem7__cxx114path9extensionEv(ptr dead_on_unwind nonnull writable sret(%"class.std::filesystem::__cxx11::path") align 8 %5, ptr noundef nonnull align 8 dereferenceable(40) %0)
  %8 = call noundef zeroext i1 @_ZNKSt7__cxx1112basic_stringIcSt11char_traitsIcESaIcEE5emptyEv(ptr noundef nonnull align 8 dereferenceable(32) %5) #20
  br i1 %8, label %.critedge, label %9

9:                                                ; preds = %3
  call void @llvm.lifetime.start.p0(i64 1, ptr nonnull %4)
  call void @_ZNSaIcEC1Ev(ptr noundef nonnull align 1 dereferenceable(1) %4) #20, !noalias !5
  %10 = call noundef ptr @_ZNKSt7__cxx1112basic_stringIcSt11char_traitsIcESaIcEE5c_strEv(ptr noundef nonnull align 8 dereferenceable(32) %5) #20, !noalias !8
  %11 = call noundef i64 @_ZNKSt7__cxx1112basic_stringIcSt11char_traitsIcESaIcEE6lengthEv(ptr noundef nonnull align 8 dereferenceable(32) %5) #20, !noalias !8
  invoke void @_ZNSt7__cxx1112basic_stringIcSt11char_traitsIcESaIcEEC1EPKcmRKS3_(ptr noundef nonnull align 8 dereferenceable(32) %7, ptr noundef %10, i64 noundef %11, ptr noundef nonnull align 1 dereferenceable(1) %4)
          to label %14 unwind label %12

12:                                               ; preds = %9
  %13 = landingpad { ptr, i32 }
          cleanup
  call void @_ZNSaIcED1Ev(ptr noundef nonnull align 1 dereferenceable(1) %4) #20
  br label %.body

14:                                               ; preds = %9
  call void @_ZNSaIcED1Ev(ptr noundef nonnull align 1 dereferenceable(1) %4) #20
  call void @llvm.lifetime.end.p0(i64 1, ptr nonnull %4)
  invoke void @_ZNKSt7__cxx1112basic_stringIcSt11char_traitsIcESaIcEE6substrEmm(ptr dead_on_unwind nonnull writable sret(%"class.std::__cxx11::basic_string") align 8 %6, ptr noundef nonnull align 8 dereferenceable(32) %7, i64 noundef 1, i64 noundef -1)
          to label %15 unwind label %28

15:                                               ; preds = %14
  %16 = call { i64, ptr } @_ZNKSt7__cxx1112basic_stringIcSt11char_traitsIcESaIcEEcvSt17basic_string_viewIcS2_EEv(ptr noundef nonnull align 8 dereferenceable(32) %6) #20
  %17 = extractvalue { i64, ptr } %16, 0
  %18 = extractvalue { i64, ptr } %16, 1
  %19 = icmp eq i64 %17, %1
  br i1 %19, label %20, label %23

20:                                               ; preds = %15
  %21 = icmp eq i64 %1, 0
  br i1 %21, label %_ZNSt11char_traitsIcE7compareEPKcS2_m.exit.thread.i.i, label %_ZNSt11char_traitsIcE7compareEPKcS2_m.exit.i.i

_ZNSt11char_traitsIcE7compareEPKcS2_m.exit.i.i:   ; preds = %20
  %bcmp.i = call i32 @bcmp(ptr %18, ptr %2, i64 %1)
  %22 = icmp eq i32 %bcmp.i, 0
  br i1 %22, label %_ZNSt11char_traitsIcE7compareEPKcS2_m.exit.thread.i.i, label %23

_ZNSt11char_traitsIcE7compareEPKcS2_m.exit.thread.i.i: ; preds = %_ZNSt11char_traitsIcE7compareEPKcS2_m.exit.i.i, %20
  br label %23

23:                                               ; preds = %_ZNSt11char_traitsIcE7compareEPKcS2_m.exit.thread.i.i, %_ZNSt11char_traitsIcE7compareEPKcS2_m.exit.i.i, %15
  %.ph = phi i1 [ false, %_ZNSt11char_traitsIcE7compareEPKcS2_m.exit.i.i ], [ true, %_ZNSt11char_traitsIcE7compareEPKcS2_m.exit.thread.i.i ], [ false, %15 ]
  call void @_ZNSt7__cxx1112basic_stringIcSt11char_traitsIcESaIcEED1Ev(ptr noundef nonnull align 8 dereferenceable(32) %6) #20
  call void @_ZNSt7__cxx1112basic_stringIcSt11char_traitsIcESaIcEED1Ev(ptr noundef nonnull align 8 dereferenceable(32) %7) #20
  br label %.critedge

.critedge:                                        ; preds = %3, %23
  %24 = phi i1 [ %.ph, %23 ], [ false, %3 ]
  %25 = getelementptr inbounds i8, ptr %5, i64 32
  %26 = load ptr, ptr %25, align 8
  %.not.i.i.i = icmp eq ptr %26, null
  br i1 %.not.i.i.i, label %_ZNSt10filesystem7__cxx114pathD2Ev.exit, label %27

27:                                               ; preds = %.critedge
  call void @_ZNKSt10filesystem7__cxx114path5_List13_Impl_deleterclEPNS2_5_ImplE(ptr noundef nonnull align 1 dereferenceable(1) %25, ptr noundef nonnull %26) #20
  br label %_ZNSt10filesystem7__cxx114pathD2Ev.exit

_ZNSt10filesystem7__cxx114pathD2Ev.exit:          ; preds = %.critedge, %27
  store ptr null, ptr %25, align 8
  call void @_ZNSt7__cxx1112basic_stringIcSt11char_traitsIcESaIcEED1Ev(ptr noundef nonnull align 8 dereferenceable(32) %5) #20
  ret i1 %24

28:                                               ; preds = %14
  %29 = landingpad { ptr, i32 }
          cleanup
  call void @_ZNSt7__cxx1112basic_stringIcSt11char_traitsIcESaIcEED1Ev(ptr noundef nonnull align 8 dereferenceable(32) %7) #20
  br label %.body

.body:                                            ; preds = %12, %28
  %.pn = phi { ptr, i32 } [ %29, %28 ], [ %13, %12 ]
  call void @_ZNSt10filesystem7__cxx114pathD2Ev(ptr noundef nonnull align 8 dereferenceable(40) %5) #20
  resume { ptr, i32 } %.pn
}